target datalayout = "e-m:e-p270:32:32-p271:32:32-p272:64:64-i64:64-i128:128-f80:128-n8:16:32:64-S128"
target triple = "x86_64-pc-linux-gnu"

%struct.Curl_llist = type { ptr, ptr, ptr, i64 }
%struct.curltime = type { i64, i32 }
%struct.Curl_llist_node = type { ptr, ptr, ptr, ptr }
%struct.Curl_easy = type { i32, i64, i64, ptr, %struct.Curl_llist_node, %struct.Curl_llist_node, i32, i32, %struct.Curl_message, %struct.easy_pollset, %struct.Names, ptr, ptr, ptr, ptr, %struct.SingleRequest, %struct.UserDefined, ptr, ptr, ptr, %struct.Progress, %struct.UrlState, ptr, %struct.PureInfo, %struct.curl_tlssessioninfo }
%struct.Curl_message = type { %struct.Curl_llist_node, %struct.CURLMsg }
%struct.CURLMsg = type { i32, ptr, %union.anon }
%union.anon = type { ptr }
%struct.easy_pollset = type { [5 x i32], i32, [5 x i8] }
%struct.Names = type { ptr, i32 }
%struct.SingleRequest = type <{ i64, i64, i64, i64, %struct.curltime, i32, i32, i32, i32, i64, i32, i32, i8, i8, [2 x i8], i32, ptr, ptr, %struct.bufq, i64, i64, ptr, ptr, %union.anon.0, ptr, i8, i32, [3 x i8] }>
%struct.bufq = type { ptr, ptr, ptr, ptr, i64, i64, i64, i32 }
%union.anon.0 = type { ptr }
%struct.UserDefined = type <{ ptr, ptr, ptr, ptr, ptr, ptr, i64, i64, i64, ptr, ptr, i64, ptr, ptr, ptr, ptr, ptr, ptr, ptr, ptr, ptr, ptr, ptr, ptr, ptr, ptr, ptr, ptr, ptr, ptr, ptr, ptr, ptr, ptr, ptr, i64, i64, i64, i64, i64, i64, i64, i64, i64, ptr, ptr, %struct.curl_mimepart, ptr, ptr, ptr, i64, %struct.ssl_config_data, %struct.ssl_config_data, ptr, i16, i8, i8, %struct.ssl_general_config, i32, i32, i32, [4 x i8], ptr, ptr, i64, i32, i8, i8, i8, i8, ptr, ptr, ptr, i32, [4 x i8], [74 x ptr], [8 x ptr], i32, i32, i32, [4 x i8], ptr, i32, [4 x i8], ptr, ptr, ptr, ptr, ptr, i32, i32, i32, i32, i32, i32, i32, i32, i64, ptr, ptr, i64, ptr, i64, ptr, ptr, ptr, ptr, i32, i16, i16, i16, i8, i8, i8, i8, i8, i8, i8, i8, i64, [6 x i8] }>
%struct.curl_mimepart = type { ptr, ptr, i32, i32, ptr, ptr, ptr, ptr, ptr, ptr, ptr, ptr, ptr, ptr, ptr, i64, %struct.mime_state, ptr, %struct.mime_encoder_state, i64 }
%struct.mime_state = type { i32, ptr, i64 }
%struct.mime_encoder_state = type { i64, i64, i64, [256 x i8] }
%struct.ssl_config_data = type { %struct.ssl_primary_config, i64, ptr, ptr, ptr, ptr, ptr, ptr, ptr, i16 }
%struct.ssl_primary_config = type { ptr, ptr, ptr, ptr, ptr, ptr, ptr, ptr, ptr, ptr, ptr, ptr, ptr, ptr, i8, i32, i8, i8 }
%struct.ssl_general_config = type { i32 }
%struct.Progress = type { i64, %struct.pgrs_dir, %struct.pgrs_dir, i64, i64, i32, i32, i64, i64, i64, i64, i64, i64, i64, i64, i64, %struct.curltime, %struct.curltime, %struct.curltime, %struct.curltime, %struct.curltime, [6 x i64], [6 x %struct.curltime], i32, i8 }
%struct.pgrs_dir = type { i64, i64, i64, %struct.pgrs_measure }
%struct.pgrs_measure = type { %struct.curltime, i64 }
%struct.UrlState = type { %struct.curltime, i64, i64, %struct.dynbuf, ptr, i64, ptr, i32, i32, i32, ptr, i32, i64, i32, ptr, %struct.digestdata, %struct.digestdata, %struct.auth, %struct.auth, %struct.Curl_async, ptr, i8, %struct.curltime, %struct.Curl_tree, %struct.Curl_llist, [15 x %struct.time_node], ptr, ptr, i64, i64, i64, i64, [32 x i8], i64, ptr, ptr, ptr, %struct.urlpieces, ptr, ptr, ptr, ptr, ptr, i64, %struct.dynbuf, %struct.Curl_llist, [2 x %struct.curl_header], ptr, i32, ptr, ptr, %struct.store_netrc, %struct.dynamically_allocated_data, i8, i8, i8, i8, i32 }
%struct.digestdata = type { ptr, ptr, ptr, ptr, ptr, ptr, i32, i8, i8 }
%struct.auth = type { i64, i64, i64, i8 }
%struct.Curl_async = type { ptr, ptr, ptr, ptr, i32, i32, i8 }
%struct.Curl_tree = type { ptr, ptr, ptr, ptr, %struct.curltime, ptr }
%struct.time_node = type { %struct.Curl_llist_node, %struct.curltime, i32 }
%struct.urlpieces = type { ptr, ptr, ptr, ptr, ptr, ptr, ptr, ptr }
%struct.dynbuf = type { ptr, i64, i64, i64 }
%struct.curl_header = type { ptr, ptr, i64, i64, i32, ptr }
%struct.store_netrc = type { %struct.dynbuf, ptr, i8 }
%struct.dynamically_allocated_data = type { ptr, ptr, ptr, ptr, ptr, ptr, ptr, ptr, ptr, ptr, ptr, ptr, ptr, ptr }
%struct.PureInfo = type { i32, i32, i32, i64, i64, i64, i64, i64, i64, i64, ptr, ptr, i64, i32, %struct.ip_quadruple, i32, ptr, i32, %struct.curl_certinfo, i32, i8 }
%struct.ip_quadruple = type { [46 x i8], [46 x i8], i32, i32 }
%struct.curl_certinfo = type { i32, ptr }
%struct.curl_tlssessioninfo = type { i32, ptr }
%struct.connectdata = type { %struct.Curl_llist_node, ptr, ptr, i64, ptr, i64, ptr, ptr, %struct.hostname, ptr, ptr, %struct.hostname, %struct.proxy_info, %struct.proxy_info, %struct.ip_quadruple, %struct.ip_quadruple, ptr, ptr, ptr, ptr, ptr, %struct.curltime, %struct.curltime, %struct.curltime, [2 x i32], [2 x ptr], [2 x ptr], [2 x ptr], %struct.anon, %struct.easy_pollset, %struct.ssl_primary_config, %struct.ssl_primary_config, %struct.ConnectBits, ptr, ptr, %struct.curltime, i32, i32, %struct.Curl_llist, i32, i32, %struct.ntlmdata, %struct.ntlmdata, %union.anon.1, ptr, ptr, i16, i32, i32, i32, i32, i16, i16, i8, i8, i8, i8, i8, i8, i8 }
%struct.hostname = type { ptr, ptr, ptr, ptr }
%struct.proxy_info = type { %struct.hostname, i32, i8, ptr, ptr }
%struct.anon = type { [2 x %struct.curltime], i32 }
%struct.ConnectBits = type { i64 }
%struct.ntlmdata = type { i32, [8 x i8], i32, ptr }
%union.anon.1 = type { %struct.ftp_conn }
%struct.ftp_conn = type { %struct.pingpong, ptr, ptr, ptr, ptr, ptr, ptr, ptr, i8, i64, ptr, i64, i32, i32, i32, i32, i32, i16, i8, i8, i8, i8, i8 }
%struct.pingpong = type { i64, i8, ptr, i64, i64, %struct.curltime, i64, %struct.dynbuf, %struct.dynbuf, i64, i64, ptr, ptr }
%struct.curl_trc_feat = type { ptr, i32 }

@.str.11 = private unnamed_addr constant [39 x i8] c"Connection #%ld to host %s left intact\00", align 1

; Function Attrs: nounwind uwtable
define hidden void @Curl_detach_connection(ptr noundef %0) #0 {
  %2 = alloca ptr, align 8
  %3 = alloca ptr, align 8
  store ptr %0, ptr %2, align 8, !tbaa !43
  call void @llvm.lifetime.start.p0(i64 8, ptr %3) #9
  %4 = load ptr, ptr %2, align 8, !tbaa !43
  %5 = getelementptr inbounds nuw %struct.Curl_easy, ptr %4, i32 0, i32 3
  %6 = load ptr, ptr %5, align 8, !tbaa !116
  store ptr %6, ptr %3, align 8, !tbaa !126
  %7 = load ptr, ptr %3, align 8, !tbaa !126
  %8 = icmp ne ptr %7, null
  br i1 %8, label %9, label %12

9:                                                ; preds = %1
  %10 = load ptr, ptr %2, align 8, !tbaa !43
  %11 = getelementptr inbounds nuw %struct.Curl_easy, ptr %10, i32 0, i32 5
  call void @Curl_node_remove(ptr noundef %11)
  br label %12

12:                                               ; preds = %9, %1
  %13 = load ptr, ptr %2, align 8, !tbaa !43
  %14 = getelementptr inbounds nuw %struct.Curl_easy, ptr %13, i32 0, i32 3
  store ptr null, ptr %14, align 8, !tbaa !116
  call void @llvm.lifetime.end.p0(i64 8, ptr %3) #9
  ret void
}

; Function Attrs: nounwind uwtable
define internal void @multi_done_locked(ptr noundef %0, ptr noundef %1, ptr noundef %2) #0 {
  %4 = alloca ptr, align 8
  %5 = alloca ptr, align 8
  %6 = alloca ptr, align 8
  %7 = alloca ptr, align 8
  %8 = alloca i32, align 4
  %9 = alloca ptr, align 8
  store ptr %0, ptr %4, align 8, !tbaa !126
  store ptr %1, ptr %5, align 8, !tbaa !43
  store ptr %2, ptr %6, align 8, !tbaa !7
  call void @llvm.lifetime.start.p0(i64 8, ptr %7) #9
  %10 = load ptr, ptr %6, align 8, !tbaa !7
  store ptr %10, ptr %7, align 8, !tbaa !259
  %11 = load ptr, ptr %5, align 8, !tbaa !43
  call void @Curl_detach_connection(ptr noundef %11)
  %12 = load ptr, ptr %4, align 8, !tbaa !126
  %13 = getelementptr inbounds nuw %struct.connectdata, ptr %12, i32 0, i32 38
  %14 = call i64 @Curl_llist_count(ptr noundef %13)
  %15 = icmp ne i64 %14, 0
  br i1 %15, label %16, label %20

16:                                               ; preds = %3
  br label %17

17:                                               ; preds = %16
  br label %18

18:                                               ; preds = %17
  br label %19

19:                                               ; preds = %18
  store i32 1, ptr %8, align 4
  br label %192

20:                                               ; preds = %3
  %21 = load ptr, ptr %5, align 8, !tbaa !43
  %22 = getelementptr inbounds nuw %struct.Curl_easy, ptr %21, i32 0, i32 21
  %23 = getelementptr inbounds nuw %struct.UrlState, ptr %22, i32 0, i32 57
  %24 = load i32, ptr %23, align 4
  %25 = and i32 %24, -4097
  %26 = or i32 %25, 4096
  store i32 %26, ptr %23, align 4
  %27 = load ptr, ptr %4, align 8, !tbaa !126
  %28 = getelementptr inbounds nuw %struct.connectdata, ptr %27, i32 0, i32 3
  %29 = load i64, ptr %28, align 8, !tbaa !261
  %30 = load ptr, ptr %5, align 8, !tbaa !43
  %31 = getelementptr inbounds nuw %struct.Curl_easy, ptr %30, i32 0, i32 21
  %32 = getelementptr inbounds nuw %struct.UrlState, ptr %31, i32 0, i32 2
  store i64 %29, ptr %32, align 8, !tbaa !262
  %33 = load ptr, ptr %4, align 8, !tbaa !126
  %34 = getelementptr inbounds nuw %struct.connectdata, ptr %33, i32 0, i32 6
  %35 = load ptr, ptr %34, align 8, !tbaa !263
  %36 = icmp ne ptr %35, null
  br i1 %36, label %37, label %41

37:                                               ; preds = %20
  %38 = load ptr, ptr %5, align 8, !tbaa !43
  %39 = load ptr, ptr %4, align 8, !tbaa !126
  %40 = getelementptr inbounds nuw %struct.connectdata, ptr %39, i32 0, i32 6
  call void @Curl_resolv_unlink(ptr noundef %38, ptr noundef %40)
  br label %41

41:                                               ; preds = %37, %20
  %42 = load ptr, ptr %5, align 8, !tbaa !43
  call void @Curl_hostcache_prune(ptr noundef %42)
  %43 = load ptr, ptr %5, align 8, !tbaa !43
  %44 = getelementptr inbounds nuw %struct.Curl_easy, ptr %43, i32 0, i32 16
  %45 = getelementptr inbounds nuw %struct.UserDefined, ptr %44, i32 0, i32 119
  %46 = load i64, ptr %45, align 2
  %47 = lshr i64 %46, 32
  %48 = and i64 %47, 1
  %49 = trunc i64 %48 to i32
  %50 = icmp ne i32 %49, 0
  br i1 %50, label %51, label %61

51:                                               ; preds = %41
  %52 = load ptr, ptr %4, align 8, !tbaa !126
  %53 = getelementptr inbounds nuw %struct.connectdata, ptr %52, i32 0, i32 39
  %54 = load i32, ptr %53, align 8, !tbaa !264
  %55 = icmp eq i32 %54, 2
  br i1 %55, label %61, label %56

56:                                               ; preds = %51
  %57 = load ptr, ptr %4, align 8, !tbaa !126
  %58 = getelementptr inbounds nuw %struct.connectdata, ptr %57, i32 0, i32 40
  %59 = load i32, ptr %58, align 4, !tbaa !265
  %60 = icmp eq i32 %59, 2
  br i1 %60, label %61, label %78

61:                                               ; preds = %56, %51, %41
  %62 = load ptr, ptr %4, align 8, !tbaa !126
  %63 = getelementptr inbounds nuw %struct.connectdata, ptr %62, i32 0, i32 32
  %64 = load i64, ptr %63, align 8
  %65 = lshr i64 %64, 5
  %66 = and i64 %65, 1
  %67 = trunc i64 %66 to i32
  %68 = icmp ne i32 %67, 0
  br i1 %68, label %78, label %69

69:                                               ; preds = %61
  %70 = load ptr, ptr %7, align 8, !tbaa !259
  %71 = load i8, ptr %70, align 4
  %72 = and i8 %71, 1
  %73 = zext i8 %72 to i32
  %74 = icmp ne i32 %73, 0
  br i1 %74, label %75, label %90

75:                                               ; preds = %69
  %76 = load ptr, ptr %4, align 8, !tbaa !126
  %77 = call zeroext i1 @Curl_conn_is_multiplex(ptr noundef %76, i32 noundef 0)
  br i1 %77, label %90, label %78

78:                                               ; preds = %75, %61, %56
  br label %79

79:                                               ; preds = %78
  br label %80

80:                                               ; preds = %79
  br label %81

81:                                               ; preds = %80
  %82 = load ptr, ptr %4, align 8, !tbaa !126
  call void @Curl_conncontrol(ptr noundef %82, i32 noundef 1)
  %83 = load ptr, ptr %5, align 8, !tbaa !43
  %84 = load ptr, ptr %4, align 8, !tbaa !126
  %85 = load ptr, ptr %7, align 8, !tbaa !259
  %86 = load i8, ptr %85, align 4
  %87 = and i8 %86, 1
  %88 = zext i8 %87 to i32
  %89 = icmp ne i32 %88, 0
  call void @Curl_cpool_disconnect(ptr noundef %83, ptr noundef %84, i1 noundef zeroext %89)
  br label %191

90:                                               ; preds = %75, %69
  %91 = load ptr, ptr %5, align 8, !tbaa !43
  %92 = load ptr, ptr %4, align 8, !tbaa !126
  %93 = call zeroext i1 @Curl_cpool_conn_now_idle(ptr noundef %91, ptr noundef %92)
  br i1 %93, label %94, label %186

94:                                               ; preds = %90
  call void @llvm.lifetime.start.p0(i64 8, ptr %9) #9
  %95 = load ptr, ptr %4, align 8, !tbaa !126
  %96 = getelementptr inbounds nuw %struct.connectdata, ptr %95, i32 0, i32 32
  %97 = load i64, ptr %96, align 8
  %98 = lshr i64 %97, 1
  %99 = and i64 %98, 1
  %100 = trunc i64 %99 to i32
  %101 = icmp ne i32 %100, 0
  br i1 %101, label %102, label %108

102:                                              ; preds = %94
  %103 = load ptr, ptr %4, align 8, !tbaa !126
  %104 = getelementptr inbounds nuw %struct.connectdata, ptr %103, i32 0, i32 12
  %105 = getelementptr inbounds nuw %struct.proxy_info, ptr %104, i32 0, i32 0
  %106 = getelementptr inbounds nuw %struct.hostname, ptr %105, i32 0, i32 3
  %107 = load ptr, ptr %106, align 8, !tbaa !266
  br label %143

108:                                              ; preds = %94
  %109 = load ptr, ptr %4, align 8, !tbaa !126
  %110 = getelementptr inbounds nuw %struct.connectdata, ptr %109, i32 0, i32 32
  %111 = load i64, ptr %110, align 8
  %112 = and i64 %111, 1
  %113 = trunc i64 %112 to i32
  %114 = icmp ne i32 %113, 0
  br i1 %114, label %115, label %121

115:                                              ; preds = %108
  %116 = load ptr, ptr %4, align 8, !tbaa !126
  %117 = getelementptr inbounds nuw %struct.connectdata, ptr %116, i32 0, i32 13
  %118 = getelementptr inbounds nuw %struct.proxy_info, ptr %117, i32 0, i32 0
  %119 = getelementptr inbounds nuw %struct.hostname, ptr %118, i32 0, i32 3
  %120 = load ptr, ptr %119, align 8, !tbaa !267
  br label %141

121:                                              ; preds = %108
  %122 = load ptr, ptr %4, align 8, !tbaa !126
  %123 = getelementptr inbounds nuw %struct.connectdata, ptr %122, i32 0, i32 32
  %124 = load i64, ptr %123, align 8
  %125 = lshr i64 %124, 8
  %126 = and i64 %125, 1
  %127 = trunc i64 %126 to i32
  %128 = icmp ne i32 %127, 0
  br i1 %128, label %129, label %134

129:                                              ; preds = %121
  %130 = load ptr, ptr %4, align 8, !tbaa !126
  %131 = getelementptr inbounds nuw %struct.connectdata, ptr %130, i32 0, i32 11
  %132 = getelementptr inbounds nuw %struct.hostname, ptr %131, i32 0, i32 3
  %133 = load ptr, ptr %132, align 8, !tbaa !268
  br label %139

134:                                              ; preds = %121
  %135 = load ptr, ptr %4, align 8, !tbaa !126
  %136 = getelementptr inbounds nuw %struct.connectdata, ptr %135, i32 0, i32 8
  %137 = getelementptr inbounds nuw %struct.hostname, ptr %136, i32 0, i32 3
  %138 = load ptr, ptr %137, align 8, !tbaa !269
  br label %139

139:                                              ; preds = %134, %129
  %140 = phi ptr [ %133, %129 ], [ %138, %134 ]
  br label %141

141:                                              ; preds = %139, %115
  %142 = phi ptr [ %120, %115 ], [ %140, %139 ]
  br label %143

143:                                              ; preds = %141, %102
  %144 = phi ptr [ %107, %102 ], [ %142, %141 ]
  store ptr %144, ptr %9, align 8, !tbaa !253
  %145 = load ptr, ptr %4, align 8, !tbaa !126
  %146 = getelementptr inbounds nuw %struct.connectdata, ptr %145, i32 0, i32 3
  %147 = load i64, ptr %146, align 8, !tbaa !261
  %148 = load ptr, ptr %5, align 8, !tbaa !43
  %149 = getelementptr inbounds nuw %struct.Curl_easy, ptr %148, i32 0, i32 21
  %150 = getelementptr inbounds nuw %struct.UrlState, ptr %149, i32 0, i32 1
  store i64 %147, ptr %150, align 8, !tbaa !127
  br label %151

151:                                              ; preds = %143
  %152 = load ptr, ptr %5, align 8, !tbaa !43
  %153 = icmp ne ptr %152, null
  br i1 %153, label %154, label %183

154:                                              ; preds = %151
  %155 = load ptr, ptr %5, align 8, !tbaa !43
  %156 = getelementptr inbounds nuw %struct.Curl_easy, ptr %155, i32 0, i32 16
  %157 = getelementptr inbounds nuw %struct.UserDefined, ptr %156, i32 0, i32 119
  %158 = load i64, ptr %157, align 2
  %159 = lshr i64 %158, 31
  %160 = and i64 %159, 1
  %161 = trunc i64 %160 to i32
  %162 = icmp ne i32 %161, 0
  br i1 %162, label %163, label %183

163:                                              ; preds = %154
  %164 = load ptr, ptr %5, align 8, !tbaa !43
  %165 = getelementptr inbounds nuw %struct.Curl_easy, ptr %164, i32 0, i32 21
  %166 = getelementptr inbounds nuw %struct.UrlState, ptr %165, i32 0, i32 50
  %167 = load ptr, ptr %166, align 8, !tbaa !151
  %168 = icmp ne ptr %167, null
  br i1 %168, label %169, label %177

169:                                              ; preds = %163
  %170 = load ptr, ptr %5, align 8, !tbaa !43
  %171 = getelementptr inbounds nuw %struct.Curl_easy, ptr %170, i32 0, i32 21
  %172 = getelementptr inbounds nuw %struct.UrlState, ptr %171, i32 0, i32 50
  %173 = load ptr, ptr %172, align 8, !tbaa !151
  %174 = getelementptr inbounds nuw %struct.curl_trc_feat, ptr %173, i32 0, i32 1
  %175 = load i32, ptr %174, align 8, !tbaa !152
  %176 = icmp sge i32 %175, 1
  br i1 %176, label %177, label %183

177:                                              ; preds = %169, %163
  %178 = load ptr, ptr %5, align 8, !tbaa !43
  %179 = load ptr, ptr %4, align 8, !tbaa !126
  %180 = getelementptr inbounds nuw %struct.connectdata, ptr %179, i32 0, i32 3
  %181 = load i64, ptr %180, align 8, !tbaa !261
  %182 = load ptr, ptr %9, align 8, !tbaa !253
  call void (ptr, ptr, ...) @Curl_infof(ptr noundef %178, ptr noundef @.str.11, i64 noundef %181, ptr noundef %182)
  br label %183

183:                                              ; preds = %177, %169, %154, %151
  br label %184

184:                                              ; preds = %183
  br label %185

185:                                              ; preds = %184
  call void @llvm.lifetime.end.p0(i64 8, ptr %9) #9
  br label %190

186:                                              ; preds = %90
  %187 = load ptr, ptr %5, align 8, !tbaa !43
  %188 = getelementptr inbounds nuw %struct.Curl_easy, ptr %187, i32 0, i32 21
  %189 = getelementptr inbounds nuw %struct.UrlState, ptr %188, i32 0, i32 1
  store i64 -1, ptr %189, align 8, !tbaa !127
  br label %190

190:                                              ; preds = %186, %185
  br label %191

191:                                              ; preds = %190, %81
  store i32 0, ptr %8, align 4
  br label %192

192:                                              ; preds = %191, %19
  call void @llvm.lifetime.end.p0(i64 8, ptr %7) #9
  %193 = load i32, ptr %8, align 4
  switch i32 %193, label %195 [
    i32 0, label %194
    i32 1, label %194
  ]

194:                                              ; preds = %192, %192
  ret void

195:                                              ; preds = %192
  unreachable
}