; Function Attrs: nounwind uwtable
define internal void @multi_done_locked(ptr noundef %0, ptr noundef %1, ptr noundef readonly captures(none) %2) #0 {
  %4 = getelementptr inbounds nuw i8, ptr %1, i64 24
  %5 = load ptr, ptr %4, align 8, !tbaa !109
  %.not.i = icmp eq ptr %5, null
  br i1 %.not.i, label %Curl_detach_connection.exit, label %6

6:                                                ; preds = %3
  %7 = getelementptr inbounds nuw i8, ptr %1, i64 64
  tail call void @Curl_node_remove(ptr noundef nonnull %7) #19
  br label %Curl_detach_connection.exit

Curl_detach_connection.exit:                      ; preds = %3, %6
  store ptr null, ptr %4, align 8, !tbaa !109
  %8 = getelementptr inbounds nuw i8, ptr %0, i64 1000
  %9 = tail call i64 @Curl_llist_count(ptr noundef nonnull %8) #19
  %.not = icmp eq i64 %9, 0
  br i1 %.not, label %10, label %71

10:                                               ; preds = %Curl_detach_connection.exit
  %11 = getelementptr inbounds nuw i8, ptr %1, i64 5036
  %12 = load i32, ptr %11, align 4
  %13 = or i32 %12, 4096
  store i32 %13, ptr %11, align 4
  %14 = getelementptr inbounds nuw i8, ptr %0, i64 48
  %15 = load i64, ptr %14, align 8, !tbaa !244
  %16 = getelementptr inbounds nuw i8, ptr %1, i64 3152
  store i64 %15, ptr %16, align 8, !tbaa !245
  %17 = getelementptr inbounds nuw i8, ptr %0, i64 72
  %18 = load ptr, ptr %17, align 8, !tbaa !246
  %.not40 = icmp eq ptr %18, null
  br i1 %.not40, label %20, label %19

19:                                               ; preds = %10
  tail call void @Curl_resolv_unlink(ptr noundef nonnull %1, ptr noundef nonnull %17) #19
  br label %20

20:                                               ; preds = %19, %10
  tail call void @Curl_hostcache_prune(ptr noundef nonnull %1) #19
  %21 = getelementptr inbounds nuw i8, ptr %1, i64 2658
  %22 = load i64, ptr %21, align 2
  %23 = and i64 %22, 4294967296
  %.not41 = icmp eq i64 %23, 0
  br i1 %.not41, label %32, label %24

24:                                               ; preds = %20
  %25 = getelementptr inbounds nuw i8, ptr %0, i64 1032
  %26 = load i32, ptr %25, align 8, !tbaa !247
  %27 = icmp eq i32 %26, 2
  br i1 %27, label %32, label %28

28:                                               ; preds = %24
  %29 = getelementptr inbounds nuw i8, ptr %0, i64 1036
  %30 = load i32, ptr %29, align 4, !tbaa !248
  %31 = icmp eq i32 %30, 2
  br i1 %31, label %32, label %41

32:                                               ; preds = %28, %24, %20
  %33 = getelementptr inbounds nuw i8, ptr %0, i64 952
  %34 = load i64, ptr %33, align 8
  %35 = and i64 %34, 32
  %.not42 = icmp eq i64 %35, 0
  br i1 %.not42, label %36, label %41

36:                                               ; preds = %32
  %37 = load i8, ptr %2, align 4
  %38 = and i8 %37, 1
  %.not43 = icmp eq i8 %38, 0
  br i1 %.not43, label %45, label %39

39:                                               ; preds = %36
  %40 = tail call zeroext i1 @Curl_conn_is_multiplex(ptr noundef nonnull %0, i32 noundef 0) #19
  br i1 %40, label %45, label %41

41:                                               ; preds = %28, %32, %39
  tail call void @Curl_conncontrol(ptr noundef nonnull %0, i32 noundef 1) #19
  %42 = load i8, ptr %2, align 4
  %43 = and i8 %42, 1
  %44 = icmp ne i8 %43, 0
  tail call void @Curl_cpool_disconnect(ptr noundef nonnull %1, ptr noundef nonnull %0, i1 noundef zeroext %44) #19
  br label %71

45:                                               ; preds = %39, %36
  %46 = tail call zeroext i1 @Curl_cpool_conn_now_idle(ptr noundef nonnull %1, ptr noundef nonnull %0) #19
  br i1 %46, label %47, label %69

47:                                               ; preds = %45
  %48 = load i64, ptr %33, align 8
  %49 = and i64 %48, 2
  %.not44 = icmp eq i64 %49, 0
  br i1 %.not44, label %50, label %54

50:                                               ; preds = %47
  %51 = and i64 %48, 1
  %.not45 = icmp eq i64 %51, 0
  br i1 %.not45, label %52, label %54

52:                                               ; preds = %50
  %53 = and i64 %48, 256
  %.not46 = icmp eq i64 %53, 0
  %. = select i1 %.not46, i64 112, i64 160
  br label %54

54:                                               ; preds = %52, %50, %47
  %.sink = phi i64 [ 192, %47 ], [ 248, %50 ], [ %., %52 ]
  %55 = getelementptr inbounds nuw i8, ptr %0, i64 %.sink
  %56 = load ptr, ptr %55, align 8, !tbaa !179
  %57 = load i64, ptr %14, align 8, !tbaa !244
  %58 = getelementptr inbounds nuw i8, ptr %1, i64 3144
  store i64 %57, ptr %58, align 8, !tbaa !119
  %59 = load i64, ptr %21, align 2
  %60 = and i64 %59, 2147483648
  %.not48 = icmp eq i64 %60, 0
  br i1 %.not48, label %71, label %61

61:                                               ; preds = %54
  %62 = getelementptr inbounds nuw i8, ptr %1, i64 4864
  %63 = load ptr, ptr %62, align 8, !tbaa !138
  %.not49 = icmp eq ptr %63, null
  br i1 %.not49, label %68, label %64

64:                                               ; preds = %61
  %65 = getelementptr inbounds nuw i8, ptr %63, i64 8
  %66 = load i32, ptr %65, align 8, !tbaa !139
  %67 = icmp sgt i32 %66, 0
  br i1 %67, label %68, label %71

68:                                               ; preds = %64, %61
  tail call void (ptr, ptr, ...) @Curl_infof(ptr noundef nonnull %1, ptr noundef nonnull @.str.11, i64 noundef %57, ptr noundef %56) #19
  br label %71

69:                                               ; preds = %45
  %70 = getelementptr inbounds nuw i8, ptr %1, i64 3144
  store i64 -1, ptr %70, align 8, !tbaa !119
  br label %71

71:                                               ; preds = %41, %69, %68, %64, %54, %Curl_detach_connection.exit
  ret void
}